target datalayout = "e-m:e-p270:32:32-p271:32:32-p272:64:64-i64:64-i128:128-f80:128-n8:16:32:64-S128"
target triple = "x86_64-pc-linux-gnu"

%struct.Map_NodeStruct_t_ = type { ptr, ptr, i32, i32, i32, i32, [3 x i32], [3 x float], float, ptr, ptr, ptr, ptr, [2 x %struct.Map_TimeStruct_t_], [2 x %struct.Map_TimeStruct_t_], [2 x ptr], ptr, ptr, ptr }
%struct.Map_TimeStruct_t_ = type { float, float, float }

; Function Attrs: nounwind uwtable
define i32 @Map_NodeIsAnd(ptr noundef %0) #0 {
  %2 = alloca ptr, align 8
  store ptr %0, ptr %2, align 8, !tbaa !29
  %3 = load ptr, ptr %2, align 8, !tbaa !29
  %4 = ptrtoint ptr %3 to i64
  %5 = and i64 %4, -2
  %6 = inttoptr i64 %5 to ptr
  %7 = getelementptr inbounds nuw %struct.Map_NodeStruct_t_, ptr %6, i32 0, i32 9
  %8 = load ptr, ptr %7, align 8, !tbaa !30
  %9 = icmp ne ptr %8, null
  br i1 %9, label %10, label %18

10:                                               ; preds = %1
  %11 = load ptr, ptr %2, align 8, !tbaa !29
  %12 = ptrtoint ptr %11 to i64
  %13 = and i64 %12, -2
  %14 = inttoptr i64 %13 to ptr
  %15 = getelementptr inbounds nuw %struct.Map_NodeStruct_t_, ptr %14, i32 0, i32 10
  %16 = load ptr, ptr %15, align 8, !tbaa !70
  %17 = icmp ne ptr %16, null
  br label %18

18:                                               ; preds = %10, %1
  %19 = phi i1 [ false, %1 ], [ %17, %10 ]
  %20 = zext i1 %19 to i32
  ret i32 %20
}