; Function Attrs: mustprogress nofree norecurse nosync nounwind willreturn memory(read, inaccessiblemem: none) uwtable
define range(i32 0, 2) i32 @Map_NodeIsAnd(ptr noundef %0) local_unnamed_addr #3 {
  %2 = ptrtoint ptr %0 to i64
  %3 = and i64 %2, -2
  %4 = inttoptr i64 %3 to ptr
  %5 = getelementptr inbounds nuw i8, ptr %4, i64 64
  %6 = load ptr, ptr %5, align 8, !tbaa !27
  %.not = icmp eq ptr %6, null
  br i1 %.not, label %12, label %7

7:                                                ; preds = %1
  %8 = getelementptr inbounds nuw i8, ptr %4, i64 72
  %9 = load ptr, ptr %8, align 8, !tbaa !65
  %10 = icmp ne ptr %9, null
  %11 = zext i1 %10 to i32
  br label %12

12:                                               ; preds = %7, %1
  %13 = phi i32 [ 0, %1 ], [ %11, %7 ]
  ret i32 %13
}